target datalayout = "e-m:e-p270:32:32-p271:32:32-p272:64:64-i64:64-i128:128-f80:128-n8:16:32:64-S128"
target triple = "x86_64-pc-linux-gnu"

%struct.__loadu_ps = type { <4 x float> }
%struct.__mm_storel_epi64_struct = type { i64 }
%struct.__storeu_si128 = type { <2 x i64> }

@stbir__s32_32768 = global <2 x i64> splat (i64 140737488388096), align 16
@stbir__s16_32768 = global <2 x i64> splat (i64 -9223231297218904064), align 16

; Function Attrs: alwaysinline nounwind uwtable
define available_externally void @_mm_storel_epi64(ptr noundef %0, <2 x i64> noundef %1) #2 {
  %3 = alloca ptr, align 8
  %4 = alloca <2 x i64>, align 16
  store ptr %0, ptr %3, align 8, !tbaa !3
  store <2 x i64> %1, ptr %4, align 16, !tbaa !12
  %5 = load <2 x i64>, ptr %4, align 16, !tbaa !12
  %6 = extractelement <2 x i64> %5, i32 0
  %7 = load ptr, ptr %3, align 8, !tbaa !3
  %8 = getelementptr inbounds nuw %struct.__mm_storel_epi64_struct, ptr %7, i32 0, i32 0
  store i64 %6, ptr %8, align 1, !tbaa !12
  ret void
}

; Function Attrs: alwaysinline nounwind uwtable
define available_externally void @_mm_storeu_si128(ptr noundef %0, <2 x i64> noundef %1) #2 {
  %3 = alloca ptr, align 8
  %4 = alloca <2 x i64>, align 16
  store ptr %0, ptr %3, align 8, !tbaa !3
  store <2 x i64> %1, ptr %4, align 16, !tbaa !12
  %5 = load <2 x i64>, ptr %4, align 16, !tbaa !12
  %6 = load ptr, ptr %3, align 8, !tbaa !3
  %7 = getelementptr inbounds nuw %struct.__storeu_si128, ptr %6, i32 0, i32 0
  store <2 x i64> %5, ptr %7, align 1, !tbaa !12
  ret void
}

; Function Attrs: alwaysinline nounwind uwtable
define available_externally <2 x i64> @_mm_sub_epi16(<2 x i64> noundef %0, <2 x i64> noundef %1) #2 {
  %3 = alloca <2 x i64>, align 16
  %4 = alloca <2 x i64>, align 16
  store <2 x i64> %0, ptr %3, align 16, !tbaa !12
  store <2 x i64> %1, ptr %4, align 16, !tbaa !12
  %5 = load <2 x i64>, ptr %3, align 16, !tbaa !12
  %6 = bitcast <2 x i64> %5 to <8 x i16>
  %7 = load <2 x i64>, ptr %4, align 16, !tbaa !12
  %8 = bitcast <2 x i64> %7 to <8 x i16>
  %9 = sub <8 x i16> %6, %8
  %10 = bitcast <8 x i16> %9 to <2 x i64>
  ret <2 x i64> %10
}

; Function Attrs: alwaysinline nounwind uwtable
define available_externally <2 x i64> @_mm_packs_epi32(<2 x i64> noundef %0, <2 x i64> noundef %1) #2 {
  %3 = alloca <2 x i64>, align 16
  %4 = alloca <2 x i64>, align 16
  store <2 x i64> %0, ptr %3, align 16, !tbaa !12
  store <2 x i64> %1, ptr %4, align 16, !tbaa !12
  %5 = load <2 x i64>, ptr %3, align 16, !tbaa !12
  %6 = bitcast <2 x i64> %5 to <4 x i32>
  %7 = load <2 x i64>, ptr %4, align 16, !tbaa !12
  %8 = bitcast <2 x i64> %7 to <4 x i32>
  %9 = call <8 x i16> @llvm.x86.sse2.packssdw.128(<4 x i32> %6, <4 x i32> %8)
  %10 = bitcast <8 x i16> %9 to <2 x i64>
  ret <2 x i64> %10
}

; Function Attrs: alwaysinline nounwind uwtable
define available_externally <2 x i64> @_mm_sub_epi32(<2 x i64> noundef %0, <2 x i64> noundef %1) #2 {
  %3 = alloca <2 x i64>, align 16
  %4 = alloca <2 x i64>, align 16
  store <2 x i64> %0, ptr %3, align 16, !tbaa !12
  store <2 x i64> %1, ptr %4, align 16, !tbaa !12
  %5 = load <2 x i64>, ptr %3, align 16, !tbaa !12
  %6 = bitcast <2 x i64> %5 to <4 x i32>
  %7 = load <2 x i64>, ptr %4, align 16, !tbaa !12
  %8 = bitcast <2 x i64> %7 to <4 x i32>
  %9 = sub <4 x i32> %6, %8
  %10 = bitcast <4 x i32> %9 to <2 x i64>
  ret <2 x i64> %10
}

; Function Attrs: alwaysinline nounwind uwtable
define available_externally <2 x i64> @_mm_cvttps_epi32(<4 x float> noundef %0) #2 {
  %2 = alloca <4 x float>, align 16
  store <4 x float> %0, ptr %2, align 16, !tbaa !12
  %3 = load <4 x float>, ptr %2, align 16, !tbaa !12
  %4 = call <4 x i32> @llvm.x86.sse2.cvttps2dq(<4 x float> %3)
  %5 = bitcast <4 x i32> %4 to <2 x i64>
  ret <2 x i64> %5
}

; Function Attrs: alwaysinline nounwind uwtable
define available_externally <4 x float> @_mm_max_ps(<4 x float> noundef %0, <4 x float> noundef %1) #2 {
  %3 = alloca <4 x float>, align 16
  %4 = alloca <4 x float>, align 16
  store <4 x float> %0, ptr %3, align 16, !tbaa !12
  store <4 x float> %1, ptr %4, align 16, !tbaa !12
  %5 = load <4 x float>, ptr %3, align 16, !tbaa !12
  %6 = load <4 x float>, ptr %4, align 16, !tbaa !12
  %7 = call <4 x float> @llvm.x86.sse.max.ps(<4 x float> %5, <4 x float> %6)
  ret <4 x float> %7
}

; Function Attrs: alwaysinline nounwind uwtable
define available_externally <4 x float> @_mm_setzero_ps() #2 {
  %1 = alloca <4 x float>, align 16
  store <4 x float> zeroinitializer, ptr %1, align 16, !tbaa !12
  %2 = load <4 x float>, ptr %1, align 16, !tbaa !12
  ret <4 x float> %2
}

; Function Attrs: alwaysinline nounwind uwtable
define available_externally <4 x float> @_mm_min_ps(<4 x float> noundef %0, <4 x float> noundef %1) #2 {
  %3 = alloca <4 x float>, align 16
  %4 = alloca <4 x float>, align 16
  store <4 x float> %0, ptr %3, align 16, !tbaa !12
  store <4 x float> %1, ptr %4, align 16, !tbaa !12
  %5 = load <4 x float>, ptr %3, align 16, !tbaa !12
  %6 = load <4 x float>, ptr %4, align 16, !tbaa !12
  %7 = call <4 x float> @llvm.x86.sse.min.ps(<4 x float> %5, <4 x float> %6)
  ret <4 x float> %7
}

; Function Attrs: alwaysinline nounwind uwtable
define available_externally <4 x float> @_mm_castsi128_ps(<2 x i64> noundef %0) #2 {
  %2 = alloca <2 x i64>, align 16
  store <2 x i64> %0, ptr %2, align 16, !tbaa !12
  %3 = load <2 x i64>, ptr %2, align 16, !tbaa !12
  %4 = bitcast <2 x i64> %3 to <4 x float>
  ret <4 x float> %4
}

; Function Attrs: alwaysinline nounwind uwtable
define available_externally <2 x i64> @_mm_castps_si128(<4 x float> noundef %0) #2 {
  %2 = alloca <4 x float>, align 16
  store <4 x float> %0, ptr %2, align 16, !tbaa !12
  %3 = load <4 x float>, ptr %2, align 16, !tbaa !12
  %4 = bitcast <4 x float> %3 to <2 x i64>
  ret <2 x i64> %4
}

; Function Attrs: alwaysinline nounwind uwtable
define available_externally <4 x float> @_mm_add_ps(<4 x float> noundef %0, <4 x float> noundef %1) #2 {
  %3 = alloca <4 x float>, align 16
  %4 = alloca <4 x float>, align 16
  store <4 x float> %0, ptr %3, align 16, !tbaa !12
  store <4 x float> %1, ptr %4, align 16, !tbaa !12
  %5 = load <4 x float>, ptr %3, align 16, !tbaa !12
  %6 = load <4 x float>, ptr %4, align 16, !tbaa !12
  %7 = fadd <4 x float> %5, %6
  ret <4 x float> %7
}

; Function Attrs: alwaysinline nounwind uwtable
define available_externally <4 x float> @_mm_mul_ps(<4 x float> noundef %0, <4 x float> noundef %1) #2 {
  %3 = alloca <4 x float>, align 16
  %4 = alloca <4 x float>, align 16
  store <4 x float> %0, ptr %3, align 16, !tbaa !12
  store <4 x float> %1, ptr %4, align 16, !tbaa !12
  %5 = load <4 x float>, ptr %3, align 16, !tbaa !12
  %6 = load <4 x float>, ptr %4, align 16, !tbaa !12
  %7 = fmul <4 x float> %5, %6
  ret <4 x float> %7
}

; Function Attrs: alwaysinline nounwind uwtable
define available_externally <4 x float> @_mm_loadu_ps(ptr noundef %0) #2 {
  %2 = alloca ptr, align 8
  store ptr %0, ptr %2, align 8, !tbaa !21
  %3 = load ptr, ptr %2, align 8, !tbaa !21
  %4 = getelementptr inbounds nuw %struct.__loadu_ps, ptr %3, i32 0, i32 0
  %5 = load <4 x float>, ptr %4, align 1, !tbaa !12
  ret <4 x float> %5
}

; Function Attrs: nounwind uwtable
define void @stbir__encode_uint16_linear_scaled_ARGB(ptr noundef %0, i32 noundef %1, ptr noundef %2) #0 {
  %4 = alloca ptr, align 8
  %5 = alloca i32, align 4
  %6 = alloca ptr, align 8
  %7 = alloca ptr, align 8
  %8 = alloca ptr, align 8
  %9 = alloca ptr, align 8
  %10 = alloca <4 x float>, align 16
  %11 = alloca <4 x float>, align 16
  %12 = alloca <2 x i64>, align 16
  %13 = alloca <2 x i64>, align 16
  %14 = alloca <2 x i64>, align 16
  %15 = alloca i32, align 4
  %16 = alloca <4 x float>, align 16
  %17 = alloca <2 x i64>, align 16
  %18 = alloca <2 x i64>, align 16
  %19 = alloca <2 x i64>, align 16
  store ptr %0, ptr %4, align 8, !tbaa !3
  store i32 %1, ptr %5, align 4, !tbaa !26
  store ptr %2, ptr %6, align 8, !tbaa !21
  call void @llvm.lifetime.start.p0(i64 8, ptr %7) #12
  %20 = load ptr, ptr %4, align 8, !tbaa !3
  store ptr %20, ptr %7, align 8, !tbaa !191
  call void @llvm.lifetime.start.p0(i64 8, ptr %8) #12
  %21 = load ptr, ptr %7, align 8, !tbaa !191
  %22 = load i32, ptr %5, align 4, !tbaa !26
  %23 = sext i32 %22 to i64
  %24 = getelementptr inbounds i16, ptr %21, i64 %23
  store ptr %24, ptr %8, align 8, !tbaa !191
  %25 = load i32, ptr %5, align 4, !tbaa !26
  %26 = icmp sge i32 %25, 8
  br i1 %26, label %27, label %103

27:                                               ; preds = %3
  call void @llvm.lifetime.start.p0(i64 8, ptr %9) #12
  %28 = load ptr, ptr %6, align 8, !tbaa !21
  %29 = load i32, ptr %5, align 4, !tbaa !26
  %30 = sext i32 %29 to i64
  %31 = getelementptr inbounds float, ptr %28, i64 %30
  %32 = getelementptr inbounds float, ptr %31, i64 -8
  store ptr %32, ptr %9, align 8, !tbaa !21
  %33 = load ptr, ptr %8, align 8, !tbaa !191
  %34 = getelementptr inbounds i16, ptr %33, i64 -8
  store ptr %34, ptr %8, align 8, !tbaa !191
  br label %35

35:                                               ; preds = %101, %99, %27
  call void @llvm.lifetime.start.p0(i64 16, ptr %10) #12
  call void @llvm.lifetime.start.p0(i64 16, ptr %11) #12
  call void @llvm.lifetime.start.p0(i64 16, ptr %12) #12
  %36 = load ptr, ptr %6, align 8, !tbaa !21
  call void asm sideeffect "", "r,~{dirflag},~{fpsr},~{flags}"(ptr %36) #12, !srcloc !322
  %37 = load ptr, ptr %6, align 8, !tbaa !21
  %38 = call <4 x float> @_mm_loadu_ps(ptr noundef %37)
  %39 = call <4 x float> @_mm_mul_ps(<4 x float> noundef splat (float 6.553500e+04), <4 x float> noundef %38)
  %40 = call <4 x float> @_mm_add_ps(<4 x float> noundef splat (float 5.000000e-01), <4 x float> noundef %39)
  store <4 x float> %40, ptr %10, align 16, !tbaa !12
  %41 = load ptr, ptr %6, align 8, !tbaa !21
  %42 = getelementptr inbounds float, ptr %41, i64 4
  %43 = call <4 x float> @_mm_loadu_ps(ptr noundef %42)
  %44 = call <4 x float> @_mm_mul_ps(<4 x float> noundef splat (float 6.553500e+04), <4 x float> noundef %43)
  %45 = call <4 x float> @_mm_add_ps(<4 x float> noundef splat (float 5.000000e-01), <4 x float> noundef %44)
  store <4 x float> %45, ptr %11, align 16, !tbaa !12
  %46 = load <4 x float>, ptr %10, align 16, !tbaa !12
  %47 = call <2 x i64> @_mm_castps_si128(<4 x float> noundef %46)
  %48 = bitcast <2 x i64> %47 to <4 x i32>
  %49 = shufflevector <4 x i32> %48, <4 x i32> poison, <4 x i32> <i32 3, i32 0, i32 1, i32 2>
  %50 = bitcast <4 x i32> %49 to <2 x i64>
  %51 = call <4 x float> @_mm_castsi128_ps(<2 x i64> noundef %50)
  store <4 x float> %51, ptr %10, align 16, !tbaa !12
  %52 = load <4 x float>, ptr %11, align 16, !tbaa !12
  %53 = call <2 x i64> @_mm_castps_si128(<4 x float> noundef %52)
  %54 = bitcast <2 x i64> %53 to <4 x i32>
  %55 = shufflevector <4 x i32> %54, <4 x i32> poison, <4 x i32> <i32 3, i32 0, i32 1, i32 2>
  %56 = bitcast <4 x i32> %55 to <2 x i64>
  %57 = call <4 x float> @_mm_castsi128_ps(<2 x i64> noundef %56)
  store <4 x float> %57, ptr %11, align 16, !tbaa !12
  call void @llvm.lifetime.start.p0(i64 16, ptr %13) #12
  call void @llvm.lifetime.start.p0(i64 16, ptr %14) #12
  %58 = load <4 x float>, ptr %10, align 16, !tbaa !12
  %59 = call <4 x float> @_mm_min_ps(<4 x float> noundef %58, <4 x float> noundef splat (float 6.553500e+04))
  %60 = call <4 x float> @_mm_setzero_ps()
  %61 = call <4 x float> @_mm_max_ps(<4 x float> noundef %59, <4 x float> noundef %60)
  %62 = call <2 x i64> @_mm_cvttps_epi32(<4 x float> noundef %61)
  store <2 x i64> %62, ptr %13, align 16, !tbaa !12
  %63 = load <4 x float>, ptr %11, align 16, !tbaa !12
  %64 = call <4 x float> @_mm_min_ps(<4 x float> noundef %63, <4 x float> noundef splat (float 6.553500e+04))
  %65 = call <4 x float> @_mm_setzero_ps()
  %66 = call <4 x float> @_mm_max_ps(<4 x float> noundef %64, <4 x float> noundef %65)
  %67 = call <2 x i64> @_mm_cvttps_epi32(<4 x float> noundef %66)
  store <2 x i64> %67, ptr %14, align 16, !tbaa !12
  %68 = load <2 x i64>, ptr %13, align 16, !tbaa !12
  %69 = load <2 x i64>, ptr @stbir__s32_32768, align 16, !tbaa !12
  %70 = call <2 x i64> @_mm_sub_epi32(<2 x i64> noundef %68, <2 x i64> noundef %69)
  store <2 x i64> %70, ptr %13, align 16, !tbaa !12
  %71 = load <2 x i64>, ptr %14, align 16, !tbaa !12
  %72 = load <2 x i64>, ptr @stbir__s32_32768, align 16, !tbaa !12
  %73 = call <2 x i64> @_mm_sub_epi32(<2 x i64> noundef %71, <2 x i64> noundef %72)
  store <2 x i64> %73, ptr %14, align 16, !tbaa !12
  %74 = load <2 x i64>, ptr %13, align 16, !tbaa !12
  %75 = load <2 x i64>, ptr %14, align 16, !tbaa !12
  %76 = call <2 x i64> @_mm_packs_epi32(<2 x i64> noundef %74, <2 x i64> noundef %75)
  store <2 x i64> %76, ptr %12, align 16, !tbaa !12
  %77 = load <2 x i64>, ptr %12, align 16, !tbaa !12
  %78 = load <2 x i64>, ptr @stbir__s16_32768, align 16, !tbaa !12
  %79 = call <2 x i64> @_mm_sub_epi16(<2 x i64> noundef %77, <2 x i64> noundef %78)
  store <2 x i64> %79, ptr %12, align 16, !tbaa !12
  call void @llvm.lifetime.end.p0(i64 16, ptr %14) #12
  call void @llvm.lifetime.end.p0(i64 16, ptr %13) #12
  %80 = load ptr, ptr %7, align 8, !tbaa !191
  %81 = load <2 x i64>, ptr %12, align 16, !tbaa !12
  call void @_mm_storeu_si128(ptr noundef %80, <2 x i64> noundef %81)
  %82 = load ptr, ptr %6, align 8, !tbaa !21
  %83 = getelementptr inbounds float, ptr %82, i64 8
  store ptr %83, ptr %6, align 8, !tbaa !21
  %84 = load ptr, ptr %7, align 8, !tbaa !191
  %85 = getelementptr inbounds i16, ptr %84, i64 8
  store ptr %85, ptr %7, align 8, !tbaa !191
  %86 = load ptr, ptr %7, align 8, !tbaa !191
  %87 = load ptr, ptr %8, align 8, !tbaa !191
  %88 = icmp ule ptr %86, %87
  br i1 %88, label %89, label %90

89:                                               ; preds = %35
  store i32 3, ptr %15, align 4
  br label %99, !llvm.loop !323

90:                                               ; preds = %35
  %91 = load ptr, ptr %7, align 8, !tbaa !191
  %92 = load ptr, ptr %8, align 8, !tbaa !191
  %93 = getelementptr inbounds i16, ptr %92, i64 8
  %94 = icmp eq ptr %91, %93
  br i1 %94, label %95, label %96

95:                                               ; preds = %90
  store i32 2, ptr %15, align 4
  br label %99

96:                                               ; preds = %90
  %97 = load ptr, ptr %8, align 8, !tbaa !191
  store ptr %97, ptr %7, align 8, !tbaa !191
  %98 = load ptr, ptr %9, align 8, !tbaa !21
  store ptr %98, ptr %6, align 8, !tbaa !21
  store i32 0, ptr %15, align 4
  br label %99

99:                                               ; preds = %96, %95, %89
  call void @llvm.lifetime.end.p0(i64 16, ptr %12) #12
  call void @llvm.lifetime.end.p0(i64 16, ptr %11) #12
  call void @llvm.lifetime.end.p0(i64 16, ptr %10) #12
  %100 = load i32, ptr %15, align 4
  switch i32 %100, label %158 [
    i32 0, label %101
    i32 3, label %35
    i32 2, label %102
  ]

101:                                              ; preds = %99
  br label %35, !llvm.loop !323

102:                                              ; preds = %99
  store i32 1, ptr %15, align 4
  call void @llvm.lifetime.end.p0(i64 8, ptr %9) #12
  br label %155

103:                                              ; preds = %3
  %104 = load ptr, ptr %7, align 8, !tbaa !191
  %105 = getelementptr inbounds i16, ptr %104, i64 4
  store ptr %105, ptr %7, align 8, !tbaa !191
  br label %106

106:                                              ; preds = %110, %103
  %107 = load ptr, ptr %7, align 8, !tbaa !191
  %108 = load ptr, ptr %8, align 8, !tbaa !191
  %109 = icmp ule ptr %107, %108
  br i1 %109, label %110, label %152

110:                                              ; preds = %106
  call void @llvm.lifetime.start.p0(i64 16, ptr %16) #12
  call void @llvm.lifetime.start.p0(i64 16, ptr %17) #12
  %111 = load ptr, ptr %6, align 8, !tbaa !21
  call void asm sideeffect "", "r,~{dirflag},~{fpsr},~{flags}"(ptr %111) #12, !srcloc !324
  %112 = load ptr, ptr %6, align 8, !tbaa !21
  %113 = call <4 x float> @_mm_loadu_ps(ptr noundef %112)
  store <4 x float> %113, ptr %16, align 16, !tbaa !12
  %114 = load <4 x float>, ptr %16, align 16, !tbaa !12
  %115 = call <4 x float> @_mm_mul_ps(<4 x float> noundef splat (float 6.553500e+04), <4 x float> noundef %114)
  %116 = call <4 x float> @_mm_add_ps(<4 x float> noundef splat (float 5.000000e-01), <4 x float> noundef %115)
  store <4 x float> %116, ptr %16, align 16, !tbaa !12
  %117 = load <4 x float>, ptr %16, align 16, !tbaa !12
  %118 = call <2 x i64> @_mm_castps_si128(<4 x float> noundef %117)
  %119 = bitcast <2 x i64> %118 to <4 x i32>
  %120 = shufflevector <4 x i32> %119, <4 x i32> poison, <4 x i32> <i32 3, i32 0, i32 1, i32 2>
  %121 = bitcast <4 x i32> %120 to <2 x i64>
  %122 = call <4 x float> @_mm_castsi128_ps(<2 x i64> noundef %121)
  store <4 x float> %122, ptr %16, align 16, !tbaa !12
  call void @llvm.lifetime.start.p0(i64 16, ptr %18) #12
  call void @llvm.lifetime.start.p0(i64 16, ptr %19) #12
  %123 = load <4 x float>, ptr %16, align 16, !tbaa !12
  %124 = call <4 x float> @_mm_min_ps(<4 x float> noundef %123, <4 x float> noundef splat (float 6.553500e+04))
  %125 = call <4 x float> @_mm_setzero_ps()
  %126 = call <4 x float> @_mm_max_ps(<4 x float> noundef %124, <4 x float> noundef %125)
  %127 = call <2 x i64> @_mm_cvttps_epi32(<4 x float> noundef %126)
  store <2 x i64> %127, ptr %18, align 16, !tbaa !12
  %128 = load <4 x float>, ptr %16, align 16, !tbaa !12
  %129 = call <4 x float> @_mm_min_ps(<4 x float> noundef %128, <4 x float> noundef splat (float 6.553500e+04))
  %130 = call <4 x float> @_mm_setzero_ps()
  %131 = call <4 x float> @_mm_max_ps(<4 x float> noundef %129, <4 x float> noundef %130)
  %132 = call <2 x i64> @_mm_cvttps_epi32(<4 x float> noundef %131)
  store <2 x i64> %132, ptr %19, align 16, !tbaa !12
  %133 = load <2 x i64>, ptr %18, align 16, !tbaa !12
  %134 = load <2 x i64>, ptr @stbir__s32_32768, align 16, !tbaa !12
  %135 = call <2 x i64> @_mm_sub_epi32(<2 x i64> noundef %133, <2 x i64> noundef %134)
  store <2 x i64> %135, ptr %18, align 16, !tbaa !12
  %136 = load <2 x i64>, ptr %19, align 16, !tbaa !12
  %137 = load <2 x i64>, ptr @stbir__s32_32768, align 16, !tbaa !12
  %138 = call <2 x i64> @_mm_sub_epi32(<2 x i64> noundef %136, <2 x i64> noundef %137)
  store <2 x i64> %138, ptr %19, align 16, !tbaa !12
  %139 = load <2 x i64>, ptr %18, align 16, !tbaa !12
  %140 = load <2 x i64>, ptr %19, align 16, !tbaa !12
  %141 = call <2 x i64> @_mm_packs_epi32(<2 x i64> noundef %139, <2 x i64> noundef %140)
  store <2 x i64> %141, ptr %17, align 16, !tbaa !12
  %142 = load <2 x i64>, ptr %17, align 16, !tbaa !12
  %143 = load <2 x i64>, ptr @stbir__s16_32768, align 16, !tbaa !12
  %144 = call <2 x i64> @_mm_sub_epi16(<2 x i64> noundef %142, <2 x i64> noundef %143)
  store <2 x i64> %144, ptr %17, align 16, !tbaa !12
  call void @llvm.lifetime.end.p0(i64 16, ptr %19) #12
  call void @llvm.lifetime.end.p0(i64 16, ptr %18) #12
  %145 = load ptr, ptr %7, align 8, !tbaa !191
  %146 = getelementptr inbounds i16, ptr %145, i64 -4
  %147 = load <2 x i64>, ptr %17, align 16, !tbaa !12
  call void @_mm_storel_epi64(ptr noundef %146, <2 x i64> noundef %147)
  %148 = load ptr, ptr %7, align 8, !tbaa !191
  %149 = getelementptr inbounds i16, ptr %148, i64 4
  store ptr %149, ptr %7, align 8, !tbaa !191
  %150 = load ptr, ptr %6, align 8, !tbaa !21
  %151 = getelementptr inbounds float, ptr %150, i64 4
  store ptr %151, ptr %6, align 8, !tbaa !21
  call void @llvm.lifetime.end.p0(i64 16, ptr %17) #12
  call void @llvm.lifetime.end.p0(i64 16, ptr %16) #12
  br label %106, !llvm.loop !325

152:                                              ; preds = %106
  %153 = load ptr, ptr %7, align 8, !tbaa !191
  %154 = getelementptr inbounds i16, ptr %153, i64 -4
  store ptr %154, ptr %7, align 8, !tbaa !191
  store i32 0, ptr %15, align 4
  br label %155

155:                                              ; preds = %152, %102
  call void @llvm.lifetime.end.p0(i64 8, ptr %8) #12
  call void @llvm.lifetime.end.p0(i64 8, ptr %7) #12
  %156 = load i32, ptr %15, align 4
  switch i32 %156, label %158 [
    i32 0, label %157
    i32 1, label %157
  ]

157:                                              ; preds = %155, %155
  ret void

158:                                              ; preds = %155, %99
  unreachable
}