; Function Attrs: nounwind uwtable
define void @stbir__encode_uint16_linear_scaled_ARGB(ptr noundef writeonly captures(address) %0, i32 noundef %1, ptr noundef %2) #0 {
  %4 = sext i32 %1 to i64
  %.idx = shl nsw i64 %4, 1
  %5 = getelementptr inbounds i8, ptr %0, i64 %.idx
  %6 = icmp sgt i32 %1, 7
  br i1 %6, label %7, label %.preheader

.preheader:                                       ; preds = %3
  %.not60 = icmp slt i32 %1, 4
  br i1 %.not60, label %.loopexit, label %.lr.ph.preheader

.lr.ph.preheader:                                 ; preds = %.preheader
  %.25059 = getelementptr inbounds nuw i8, ptr %0, i64 8
  br label %.lr.ph

7:                                                ; preds = %3
  %8 = getelementptr inbounds nuw float, ptr %2, i64 %4
  %9 = getelementptr inbounds i8, ptr %8, i64 -32
  %10 = getelementptr inbounds i8, ptr %5, i64 -16
  br label %11

11:                                               ; preds = %11, %7
  %.048 = phi ptr [ %0, %7 ], [ %.149, %11 ]
  %.0 = phi ptr [ %2, %7 ], [ %.1, %11 ]
  tail call void asm sideeffect "", "r,~{dirflag},~{fpsr},~{flags}"(ptr %.0) #24, !srcloc !276
  %12 = load <4 x float>, ptr %.0, align 1, !tbaa !4
  %13 = fmul <4 x float> %12, splat (float 6.553500e+04)
  %14 = fadd <4 x float> %13, splat (float 5.000000e-01)
  %15 = getelementptr inbounds nuw i8, ptr %.0, i64 16
  %16 = load <4 x float>, ptr %15, align 1, !tbaa !4
  %17 = fmul <4 x float> %16, splat (float 6.553500e+04)
  %18 = fadd <4 x float> %17, splat (float 5.000000e-01)
  %19 = shufflevector <4 x float> %14, <4 x float> poison, <4 x i32> <i32 3, i32 0, i32 1, i32 2>
  %20 = shufflevector <4 x float> %18, <4 x float> poison, <4 x i32> <i32 3, i32 0, i32 1, i32 2>
  %21 = tail call <4 x float> @llvm.x86.sse.min.ps(<4 x float> %19, <4 x float> splat (float 6.553500e+04))
  %22 = tail call <4 x float> @llvm.x86.sse.max.ps(<4 x float> %21, <4 x float> zeroinitializer)
  %23 = tail call <4 x i32> @llvm.x86.sse2.cvttps2dq(<4 x float> %22)
  %24 = tail call <4 x float> @llvm.x86.sse.min.ps(<4 x float> %20, <4 x float> splat (float 6.553500e+04))
  %25 = tail call <4 x float> @llvm.x86.sse.max.ps(<4 x float> %24, <4 x float> zeroinitializer)
  %26 = tail call <4 x i32> @llvm.x86.sse2.cvttps2dq(<4 x float> %25)
  %27 = load <4 x i32>, ptr @stbir__s32_32768, align 16, !tbaa !4
  %28 = sub <4 x i32> %23, %27
  %29 = sub <4 x i32> %26, %27
  %30 = tail call <8 x i16> @llvm.x86.sse2.packssdw.128(<4 x i32> %28, <4 x i32> %29)
  %31 = load <8 x i16>, ptr @stbir__s16_32768, align 16, !tbaa !4
  %32 = sub <8 x i16> %30, %31
  store <8 x i16> %32, ptr %.048, align 1, !tbaa !4
  %33 = getelementptr inbounds nuw i8, ptr %.0, i64 32
  %34 = getelementptr inbounds nuw i8, ptr %.048, i64 16
  %.not55 = icmp ugt ptr %34, %10
  %35 = icmp eq ptr %34, %5
  %.56 = select i1 %35, ptr %34, ptr %10
  %.57 = select i1 %35, ptr %33, ptr %9
  %.149 = select i1 %.not55, ptr %.56, ptr %34
  %.1 = select i1 %.not55, ptr %.57, ptr %33
  br i1 %35, label %.loopexit, label %11

.lr.ph:                                           ; preds = %.lr.ph.preheader, %.lr.ph
  %.25063 = phi ptr [ %.250, %.lr.ph ], [ %.25059, %.lr.ph.preheader ]
  %.262 = phi ptr [ %50, %.lr.ph ], [ %2, %.lr.ph.preheader ]
  %.pn61 = phi ptr [ %.25063, %.lr.ph ], [ %0, %.lr.ph.preheader ]
  tail call void asm sideeffect "", "r,~{dirflag},~{fpsr},~{flags}"(ptr %.262) #24, !srcloc !277
  %36 = load <4 x float>, ptr %.262, align 1, !tbaa !4
  %37 = fmul <4 x float> %36, splat (float 6.553500e+04)
  %38 = fadd <4 x float> %37, splat (float 5.000000e-01)
  %39 = shufflevector <4 x float> %38, <4 x float> poison, <4 x i32> <i32 3, i32 0, i32 1, i32 2>
  %40 = tail call <4 x float> @llvm.x86.sse.min.ps(<4 x float> %39, <4 x float> splat (float 6.553500e+04))
  %41 = tail call <4 x float> @llvm.x86.sse.max.ps(<4 x float> %40, <4 x float> zeroinitializer)
  %42 = tail call <4 x i32> @llvm.x86.sse2.cvttps2dq(<4 x float> %41)
  %43 = load <4 x i32>, ptr @stbir__s32_32768, align 16, !tbaa !4
  %44 = sub <4 x i32> %42, %43
  %45 = tail call <8 x i16> @llvm.x86.sse2.packssdw.128(<4 x i32> %44, <4 x i32> poison)
  %46 = load <8 x i16>, ptr @stbir__s16_32768, align 16, !tbaa !4
  %47 = sub <8 x i16> %45, %46
  %48 = bitcast <8 x i16> %47 to <2 x i64>
  %49 = extractelement <2 x i64> %48, i64 0
  store i64 %49, ptr %.pn61, align 1, !tbaa !4
  %50 = getelementptr inbounds nuw i8, ptr %.262, i64 16
  %.250 = getelementptr inbounds nuw i8, ptr %.25063, i64 8
  %.not = icmp ugt ptr %.250, %5
  br i1 %.not, label %.loopexit, label %.lr.ph, !llvm.loop !278

.loopexit:                                        ; preds = %.lr.ph, %11, %.preheader
  ret void
}